
led.elf:     file format elf32-littlearm

Disassembly of section .text:

00000000 <_start>:
   0:	e3a00207 	mov	r0, #1879048192	; 0x70000000
   4:	e3800013 	orr	r0, r0, #19	; 0x13
   8:	ee0f0f92 	mcr	15, 0, r0, cr15, cr2, {4}
   c:	e59f0014 	ldr	r0, [pc, #20]	; 28 <halt+0x4>
  10:	e3a01000 	mov	r1, #0	; 0x0
  14:	e5801000 	str	r1, [r0]
  18:	eb000003 	bl	2c <clock_init>
  1c:	e3a0da02 	mov	sp, #8192	; 0x2000
  20:	eb000035 	bl	fc <main>

00000024 <halt>:
  24:	eafffffe 	b	24 <halt>
  28:	7e004000 	.word	0x7e004000

0000002c <clock_init>:
  2c:	e59f0064 	ldr	r0, [pc, #100]	; 98 <loop1+0x48>
  30:	e59f1064 	ldr	r1, [pc, #100]	; 9c <loop1+0x4c>
  34:	e5801000 	str	r1, [r0]
  38:	e5801004 	str	r1, [r0, #4]
  3c:	e5801008 	str	r1, [r0, #8]
  40:	e59f0058 	ldr	r0, [pc, #88]	; a0 <loop1+0x50>
  44:	e5901000 	ldr	r1, [r0]
  48:	e3c110c0 	bic	r1, r1, #192	; 0xc0
  4c:	e5801000 	str	r1, [r0]

00000050 <loop1>:
  50:	e59f0048 	ldr	r0, [pc, #72]	; a0 <loop1+0x50>
  54:	e5901000 	ldr	r1, [r0]
  58:	e2011c0f 	and	r1, r1, #3840	; 0xf00
  5c:	e3510000 	cmp	r1, #0	; 0x0
  60:	1afffffa 	bne	50 <loop1>
  64:	e59f0038 	ldr	r0, [pc, #56]	; a4 <loop1+0x54>
  68:	e3a01c33 	mov	r1, #13056	; 0x3300
  6c:	e5801000 	str	r1, [r0]
  70:	e59f0030 	ldr	r0, [pc, #48]	; a8 <loop1+0x58>
  74:	e59f1030 	ldr	r1, [pc, #48]	; ac <loop1+0x5c>
  78:	e5801000 	str	r1, [r0]
  7c:	e59f002c 	ldr	r0, [pc, #44]	; b0 <loop1+0x60>
  80:	e59f1024 	ldr	r1, [pc, #36]	; ac <loop1+0x5c>
  84:	e5801000 	str	r1, [r0]
  88:	e59f0024 	ldr	r0, [pc, #36]	; b4 <loop1+0x64>
  8c:	e3a01003 	mov	r1, #3	; 0x3
  90:	e5801000 	str	r1, [r0]
  94:	e1a0f00e 	mov	pc, lr
  98:	7e00f000 	.word	0x7e00f000
  9c:	0000ffff 	.word	0x0000ffff
  a0:	7e00f900 	.word	0x7e00f900
  a4:	7e00f020 	.word	0x7e00f020
  a8:	7e00f00c 	.word	0x7e00f00c
  ac:	810a0301 	.word	0x810a0301
  b0:	7e00f010 	.word	0x7e00f010
  b4:	7e00f01c 	.word	0x7e00f01c

000000b8 <delay>:
  b8:	e52db004 	push	{fp}		; (str fp, [sp, #-4]!)
  bc:	e28db000 	add	fp, sp, #0	; 0x0
  c0:	e24dd00c 	sub	sp, sp, #12	; 0xc
  c4:	e3a03801 	mov	r3, #65536	; 0x10000
  c8:	e50b3008 	str	r3, [fp, #-8]
  cc:	e51b2008 	ldr	r2, [fp, #-8]
  d0:	e3520000 	cmp	r2, #0	; 0x0
  d4:	03a03000 	moveq	r3, #0	; 0x0
  d8:	13a03001 	movne	r3, #1	; 0x1
  dc:	e20310ff 	and	r1, r3, #255	; 0xff
  e0:	e2423001 	sub	r3, r2, #1	; 0x1
  e4:	e50b3008 	str	r3, [fp, #-8]
  e8:	e3510000 	cmp	r1, #0	; 0x0
  ec:	1afffff6 	bne	cc <delay+0x14>
  f0:	e28bd000 	add	sp, fp, #0	; 0x0
  f4:	e8bd0800 	pop	{fp}
  f8:	e12fff1e 	bx	lr

000000fc <main>:
  fc:	e92d4800 	push	{fp, lr}
 100:	e28db004 	add	fp, sp, #4	; 0x4
 104:	e24dd010 	sub	sp, sp, #16	; 0x10
 108:	e3a03000 	mov	r3, #0	; 0x0
 10c:	e50b3010 	str	r3, [fp, #-16]
 110:	e3a0347f 	mov	r3, #2130706432	; 0x7f000000
 114:	e2833b22 	add	r3, r3, #34816	; 0x8800
 118:	e2833020 	add	r3, r3, #32	; 0x20
 11c:	e50b300c 	str	r3, [fp, #-12]
 120:	e3a0347f 	mov	r3, #2130706432	; 0x7f000000
 124:	e2833b22 	add	r3, r3, #34816	; 0x8800
 128:	e2833024 	add	r3, r3, #36	; 0x24
 12c:	e50b3008 	str	r3, [fp, #-8]
 130:	e51b200c 	ldr	r2, [fp, #-12]
 134:	e3a03c11 	mov	r3, #4352	; 0x1100
 138:	e2833011 	add	r3, r3, #17	; 0x11
 13c:	e5823000 	str	r3, [r2]
 140:	e51b2010 	ldr	r2, [fp, #-16]
 144:	e51b3008 	ldr	r3, [fp, #-8]
 148:	e5832000 	str	r2, [r3]
 14c:	e51b3010 	ldr	r3, [fp, #-16]
 150:	e2833001 	add	r3, r3, #1	; 0x1
 154:	e50b3010 	str	r3, [fp, #-16]
 158:	e51b3010 	ldr	r3, [fp, #-16]
 15c:	e3530010 	cmp	r3, #16	; 0x10
 160:	1a000001 	bne	16c <main+0x70>
 164:	e3a03000 	mov	r3, #0	; 0x0
 168:	e50b3010 	str	r3, [fp, #-16]
 16c:	ebffffd1 	bl	b8 <delay>
 170:	eafffff2 	b	140 <main+0x44>