
key.elf:     file format elf32-littlearm

Disassembly of section .text:

50000000 <_start>:
50000000:	ea00000c 	b	50000038 <reset>
50000004:	ea00002b 	b	500000b8 <halt>
50000008:	ea00002a 	b	500000b8 <halt>
5000000c:	ea000029 	b	500000b8 <halt>
50000010:	ea000028 	b	500000b8 <halt>
50000014:	ea000027 	b	500000b8 <halt>
50000018:	e59ff09c 	ldr	pc, [pc, #156]	; 500000bc <halt+0x4>
5000001c:	ea000025 	b	500000b8 <halt>

50000020 <_irq>:
50000020:	50000024 	.word	0x50000024

50000024 <vector_irq>:
50000024:	e3a0d453 	mov	sp, #1392508928	; 0x53000000
50000028:	e24ee004 	sub	lr, lr, #4	; 0x4
5000002c:	e92d5fff 	push	{r0, r1, r2, r3, r4, r5, r6, r7, r8, r9, sl, fp, ip, lr}
50000030:	eb0000b1 	bl	500002fc <do_irq>
50000034:	e8fd9fff 	ldm	sp!, {r0, r1, r2, r3, r4, r5, r6, r7, r8, r9, sl, fp, ip, pc}^

50000038 <reset>:
50000038:	e3a00207 	mov	r0, #1879048192	; 0x70000000
5000003c:	e3800013 	orr	r0, r0, #19	; 0x13
50000040:	ee0f0f92 	mcr	15, 0, r0, cr15, cr2, {4}
50000044:	e59f0074 	ldr	r0, [pc, #116]	; 500000c0 <halt+0x8>
50000048:	e3a01000 	mov	r1, #0	; 0x0
5000004c:	e5801000 	str	r1, [r0]
50000050:	e3a0da02 	mov	sp, #8192	; 0x2000
50000054:	eb00001d 	bl	500000d0 <clock_init>
50000058:	eb000035 	bl	50000134 <ddr_init>
5000005c:	e24f0064 	sub	r0, pc, #100	; 0x64
50000060:	e59f105c 	ldr	r1, [pc, #92]	; 500000c4 <halt+0xc>
50000064:	e59f205c 	ldr	r2, [pc, #92]	; 500000c8 <halt+0x10>
50000068:	e1500001 	cmp	r0, r1
5000006c:	0a000003 	beq	50000080 <clean_bss>

50000070 <copy_loop>:
50000070:	e4903004 	ldr	r3, [r0], #4
50000074:	e4813004 	str	r3, [r1], #4
50000078:	e1510002 	cmp	r1, r2
5000007c:	1afffffb 	bne	50000070 <copy_loop>

50000080 <clean_bss>:
50000080:	e59f0040 	ldr	r0, [pc, #64]	; 500000c8 <halt+0x10>
50000084:	e59f1040 	ldr	r1, [pc, #64]	; 500000cc <halt+0x14>
50000088:	e3a02000 	mov	r2, #0	; 0x0
5000008c:	e1500001 	cmp	r0, r1
50000090:	0a000002 	beq	500000a0 <on_ram>

50000094 <bss_loop>:
50000094:	e4802004 	str	r2, [r0], #4
50000098:	e1500001 	cmp	r0, r1
5000009c:	1afffffc 	bne	50000094 <bss_loop>

500000a0 <on_ram>:
500000a0:	eb0000f5 	bl	5000047c <test1>
500000a4:	eb000087 	bl	500002c8 <irq_init>
500000a8:	e10f0000 	mrs	r0, CPSR
500000ac:	e3c0009f 	bic	r0, r0, #159	; 0x9f
500000b0:	e3800010 	orr	r0, r0, #16	; 0x10
500000b4:	e129f000 	msr	CPSR_fc, r0

500000b8 <halt>:
500000b8:	eafffffe 	b	500000b8 <halt>
500000bc:	50000020 	.word	0x50000020
500000c0:	7e004000 	.word	0x7e004000
500000c4:	50000000 	.word	0x50000000
500000c8:	500004ec 	.word	0x500004ec
500000cc:	500004ec 	.word	0x500004ec

500000d0 <clock_init>:
500000d0:	e3a0347e 	mov	r3, #2113929216	; 0x7e000000
500000d4:	e3a01801 	mov	r1, #65536	; 0x10000
500000d8:	e2833a0f 	add	r3, r3, #61440	; 0xf000
500000dc:	e2411001 	sub	r1, r1, #1	; 0x1
500000e0:	e5831000 	str	r1, [r3]
500000e4:	e5831004 	str	r1, [r3, #4]
500000e8:	e5831008 	str	r1, [r3, #8]
500000ec:	e5932900 	ldr	r2, [r3, #2304]
500000f0:	e3c220c0 	bic	r2, r2, #192	; 0xc0
500000f4:	e5832900 	str	r2, [r3, #2304]
500000f8:	e1a02003 	mov	r2, r3
500000fc:	e5923900 	ldr	r3, [r2, #2304]
50000100:	e3a0147e 	mov	r1, #2113929216	; 0x7e000000
50000104:	e3130c0f 	tst	r3, #3840	; 0xf00
50000108:	e2811a0f 	add	r1, r1, #61440	; 0xf000
5000010c:	1afffffa 	bne	500000fc <clock_init+0x2c>
50000110:	e59f3018 	ldr	r3, [pc, #24]	; 50000130 <clock_init+0x60>
50000114:	e3a02c33 	mov	r2, #13056	; 0x3300
50000118:	e5812020 	str	r2, [r1, #32]
5000011c:	e3a02003 	mov	r2, #3	; 0x3
50000120:	e581300c 	str	r3, [r1, #12]
50000124:	e5813010 	str	r3, [r1, #16]
50000128:	e581201c 	str	r2, [r1, #28]
5000012c:	e12fff1e 	bx	lr
50000130:	810a0301 	.word	0x810a0301

50000134 <ddr_init>:
50000134:	e3a0147e 	mov	r1, #2113929216	; 0x7e000000
50000138:	e2811a01 	add	r1, r1, #4096	; 0x1000
5000013c:	e3a03004 	mov	r3, #4	; 0x4
50000140:	e3a02e45 	mov	r2, #1104	; 0x450
50000144:	e5813004 	str	r3, [r1, #4]
50000148:	e282200b 	add	r2, r2, #11	; 0xb
5000014c:	e2833002 	add	r3, r3, #2	; 0x2
50000150:	e5812010 	str	r2, [r1, #16]
50000154:	e92d0070 	push	{r4, r5, r6}
50000158:	e5813014 	str	r3, [r1, #20]
5000015c:	e3a06001 	mov	r6, #1	; 0x1
50000160:	e2433004 	sub	r3, r3, #4	; 0x4
50000164:	e5816018 	str	r6, [r1, #24]
50000168:	e3a04007 	mov	r4, #7	; 0x7
5000016c:	e581301c 	str	r3, [r1, #28]
50000170:	e2833008 	add	r3, r3, #8	; 0x8
50000174:	e5814020 	str	r4, [r1, #32]
50000178:	e3a0000c 	mov	r0, #12	; 0xc
5000017c:	e5813024 	str	r3, [r1, #36]
50000180:	e3a0c003 	mov	ip, #3	; 0x3
50000184:	e3a05012 	mov	r5, #18	; 0x12
50000188:	e3a03f4b 	mov	r3, #300	; 0x12c
5000018c:	e5810028 	str	r0, [r1, #40]
50000190:	e581302c 	str	r3, [r1, #44]
50000194:	e5810030 	str	r0, [r1, #48]
50000198:	e581c034 	str	ip, [r1, #52]
5000019c:	e581c038 	str	ip, [r1, #56]
500001a0:	e581403c 	str	r4, [r1, #60]
500001a4:	e5816040 	str	r6, [r1, #64]
500001a8:	e5815044 	str	r5, [r1, #68]
500001ac:	e5815048 	str	r5, [r1, #72]
500001b0:	e591300c 	ldr	r3, [r1, #12]
500001b4:	e3c33007 	bic	r3, r3, #7	; 0x7
500001b8:	e581300c 	str	r3, [r1, #12]
500001bc:	e591200c 	ldr	r2, [r1, #12]
500001c0:	e3822002 	orr	r2, r2, #2	; 0x2
500001c4:	e581200c 	str	r2, [r1, #12]
500001c8:	e591300c 	ldr	r3, [r1, #12]
500001cc:	e3c33038 	bic	r3, r3, #56	; 0x38
500001d0:	e581300c 	str	r3, [r1, #12]
500001d4:	e591200c 	ldr	r2, [r1, #12]
500001d8:	e3822018 	orr	r2, r2, #24	; 0x18
500001dc:	e581200c 	str	r2, [r1, #12]
500001e0:	e591300c 	ldr	r3, [r1, #12]
500001e4:	e3c33040 	bic	r3, r3, #64	; 0x40
500001e8:	e581300c 	str	r3, [r1, #12]
500001ec:	e591200c 	ldr	r2, [r1, #12]
500001f0:	e3c2290e 	bic	r2, r2, #229376	; 0x38000
500001f4:	e581200c 	str	r2, [r1, #12]
500001f8:	e591300c 	ldr	r3, [r1, #12]
500001fc:	e3833801 	orr	r3, r3, #65536	; 0x10000
50000200:	e581300c 	str	r3, [r1, #12]
50000204:	e591200c 	ldr	r2, [r1, #12]
50000208:	e3c2200f 	bic	r2, r2, #15	; 0xf
5000020c:	e581200c 	str	r2, [r1, #12]
50000210:	e591300c 	ldr	r3, [r1, #12]
50000214:	e3833005 	orr	r3, r3, #5	; 0x5
50000218:	e581300c 	str	r3, [r1, #12]
5000021c:	e591200c 	ldr	r2, [r1, #12]
50000220:	e3c220c0 	bic	r2, r2, #192	; 0xc0
50000224:	e581200c 	str	r2, [r1, #12]
50000228:	e591300c 	ldr	r3, [r1, #12]
5000022c:	e3833040 	orr	r3, r3, #64	; 0x40
50000230:	e581300c 	str	r3, [r1, #12]
50000234:	e591200c 	ldr	r2, [r1, #12]
50000238:	e3c22c07 	bic	r2, r2, #1792	; 0x700
5000023c:	e581200c 	str	r2, [r1, #12]
50000240:	e591300c 	ldr	r3, [r1, #12]
50000244:	e3833c03 	orr	r3, r3, #768	; 0x300
50000248:	e581300c 	str	r3, [r1, #12]
5000024c:	e591200c 	ldr	r2, [r1, #12]
50000250:	e3c22b06 	bic	r2, r2, #6144	; 0x1800
50000254:	e581200c 	str	r2, [r1, #12]
50000258:	e591300c 	ldr	r3, [r1, #12]
5000025c:	e3833b02 	orr	r3, r3, #2048	; 0x800
50000260:	e581300c 	str	r3, [r1, #12]
50000264:	e5912200 	ldr	r2, [r1, #512]
50000268:	e3a03703 	mov	r3, #786432	; 0xc0000
5000026c:	e3a0c702 	mov	ip, #524288	; 0x80000
50000270:	e3a0447e 	mov	r4, #2113929216	; 0x7e000000
50000274:	e3822801 	orr	r2, r2, #65536	; 0x10000
50000278:	e5812200 	str	r2, [r1, #512]
5000027c:	e240000c 	sub	r0, r0, #12	; 0xc
50000280:	e5813008 	str	r3, [r1, #8]
50000284:	e3a05701 	mov	r5, #262144	; 0x40000
50000288:	e28cc032 	add	ip, ip, #50	; 0x32
5000028c:	e2844a0f 	add	r4, r4, #61440	; 0xf000
50000290:	e2433802 	sub	r3, r3, #131072	; 0x20000
50000294:	e5810008 	str	r0, [r1, #8]
50000298:	e5815008 	str	r5, [r1, #8]
5000029c:	e5815008 	str	r5, [r1, #8]
500002a0:	e5813008 	str	r3, [r1, #8]
500002a4:	e581c008 	str	ip, [r1, #8]
500002a8:	e5840120 	str	r0, [r4, #288]
500002ac:	e5810004 	str	r0, [r1, #4]
500002b0:	e5913000 	ldr	r3, [r1]
500002b4:	e2033003 	and	r3, r3, #3	; 0x3
500002b8:	e3530001 	cmp	r3, #1	; 0x1
500002bc:	1afffffb 	bne	500002b0 <ddr_init+0x17c>
500002c0:	e8bd0070 	pop	{r4, r5, r6}
500002c4:	e12fff1e 	bx	lr

500002c8 <irq_init>:
500002c8:	e3a0147e 	mov	r1, #2113929216	; 0x7e000000
500002cc:	e2811902 	add	r1, r1, #32768	; 0x8000
500002d0:	e5913820 	ldr	r3, [r1, #2080]
500002d4:	e1a03823 	lsr	r3, r3, #16
500002d8:	e1a03803 	lsl	r3, r3, #16
500002dc:	e5813820 	str	r3, [r1, #2080]
500002e0:	e5912820 	ldr	r2, [r1, #2080]
500002e4:	e3822c11 	orr	r2, r2, #4352	; 0x1100
500002e8:	e3822011 	orr	r2, r2, #17	; 0x11
500002ec:	e3a0300f 	mov	r3, #15	; 0xf
500002f0:	e5812820 	str	r2, [r1, #2080]
500002f4:	e5813824 	str	r3, [r1, #2084]
500002f8:	eafffffe 	b	500002f8 <irq_init+0x30>

500002fc <do_irq>:
500002fc:	e3a0147e 	mov	r1, #2113929216	; 0x7e000000
50000300:	e2811902 	add	r1, r1, #32768	; 0x8000
50000304:	e5913820 	ldr	r3, [r1, #2080]
50000308:	e1a03823 	lsr	r3, r3, #16
5000030c:	e1a03803 	lsl	r3, r3, #16
50000310:	e5813820 	str	r3, [r1, #2080]
50000314:	e5912820 	ldr	r2, [r1, #2080]
50000318:	e3822c11 	orr	r2, r2, #4352	; 0x1100
5000031c:	e3822011 	orr	r2, r2, #17	; 0x11
50000320:	e3a0300c 	mov	r3, #12	; 0xc
50000324:	e92d0030 	push	{r4, r5}
50000328:	e5812820 	str	r2, [r1, #2080]
5000032c:	e3a0447f 	mov	r4, #2130706432	; 0x7f000000
50000330:	e5813824 	str	r3, [r1, #2084]
50000334:	e2844902 	add	r4, r4, #32768	; 0x8000
50000338:	e3a00000 	mov	r0, #0	; 0x0
5000033c:	e3a05001 	mov	r5, #1	; 0x1
50000340:	e1a02015 	lsl	r2, r5, r0
50000344:	e5943924 	ldr	r3, [r4, #2340]
50000348:	e1120003 	tst	r2, r3
5000034c:	0a000008 	beq	50000374 <do_irq+0x78>
50000350:	e5913834 	ldr	r3, [r1, #2100]
50000354:	e1120003 	tst	r2, r3
50000358:	15913824 	ldrne	r3, [r1, #2084]
5000035c:	05913824 	ldreq	r3, [r1, #2084]
50000360:	e1e0c002 	mvn	ip, r2
50000364:	100c3003 	andne	r3, ip, r3
50000368:	01823003 	orreq	r3, r2, r3
5000036c:	15813824 	strne	r3, [r1, #2084]
50000370:	05813824 	streq	r3, [r1, #2084]
50000374:	e2800001 	add	r0, r0, #1	; 0x1
50000378:	e3500006 	cmp	r0, #6	; 0x6
5000037c:	1affffef 	bne	50000340 <do_irq+0x44>
50000380:	e3a0147f 	mov	r1, #2130706432	; 0x7f000000
50000384:	e3a00471 	mov	r0, #1895825408	; 0x71000000
50000388:	e2811902 	add	r1, r1, #32768	; 0x8000
5000038c:	e2800602 	add	r0, r0, #2097152	; 0x200000
50000390:	e3a0303f 	mov	r3, #63	; 0x3f
50000394:	e3a02000 	mov	r2, #0	; 0x0
50000398:	e5813924 	str	r3, [r1, #2340]
5000039c:	e5802f00 	str	r2, [r0, #3840]
500003a0:	e8bd0030 	pop	{r4, r5}
500003a4:	e12fff1e 	bx	lr

500003a8 <key>:
500003a8:	e3a0147f 	mov	r1, #2130706432	; 0x7f000000
500003ac:	e2811902 	add	r1, r1, #32768	; 0x8000
500003b0:	e5913820 	ldr	r3, [r1, #2080]
500003b4:	e1a03823 	lsr	r3, r3, #16
500003b8:	e1a03803 	lsl	r3, r3, #16
500003bc:	e5813820 	str	r3, [r1, #2080]
500003c0:	e5912820 	ldr	r2, [r1, #2080]
500003c4:	e3822c11 	orr	r2, r2, #4352	; 0x1100
500003c8:	e3822011 	orr	r2, r2, #17	; 0x11
500003cc:	e5812820 	str	r2, [r1, #2080]
500003d0:	e5913830 	ldr	r3, [r1, #2096]
500003d4:	e3a02000 	mov	r2, #0	; 0x0
500003d8:	e20334ff 	and	r3, r3, #-16777216	; 0xff000000
500003dc:	e5813830 	str	r3, [r1, #2096]
500003e0:	e5812824 	str	r2, [r1, #2084]
500003e4:	e1a00001 	mov	r0, r1
500003e8:	e5903834 	ldr	r3, [r0, #2100]
500003ec:	e353007f 	cmp	r3, #127	; 0x7f
500003f0:	0afffffc 	beq	500003e8 <key+0x40>
500003f4:	e5903834 	ldr	r3, [r0, #2100]
500003f8:	e353007f 	cmp	r3, #127	; 0x7f
500003fc:	1afffffc 	bne	500003f4 <key+0x4c>
50000400:	e1e02002 	mvn	r2, r2
50000404:	e5812824 	str	r2, [r1, #2084]
50000408:	eafffff6 	b	500003e8 <key+0x40>

5000040c <dl>:
5000040c:	e3a02ebb 	mov	r2, #2992	; 0xbb0
50000410:	e24dd008 	sub	sp, sp, #8	; 0x8
50000414:	e2822008 	add	r2, r2, #8	; 0x8
50000418:	e58d2004 	str	r2, [sp, #4]
5000041c:	e58d2000 	str	r2, [sp]
50000420:	e58d2004 	str	r2, [sp, #4]
50000424:	e59d3004 	ldr	r3, [sp, #4]
50000428:	e3530000 	cmp	r3, #0	; 0x0
5000042c:	ba000010 	blt	50000474 <dl+0x68>
50000430:	e1a01002 	mov	r1, r2
50000434:	e58d1000 	str	r1, [sp]
50000438:	e59d3000 	ldr	r3, [sp]
5000043c:	e3530000 	cmp	r3, #0	; 0x0
50000440:	ba000005 	blt	5000045c <dl+0x50>
50000444:	e59d3000 	ldr	r3, [sp]
50000448:	e2433001 	sub	r3, r3, #1	; 0x1
5000044c:	e58d3000 	str	r3, [sp]
50000450:	e59d2000 	ldr	r2, [sp]
50000454:	e3520000 	cmp	r2, #0	; 0x0
50000458:	aafffff9 	bge	50000444 <dl+0x38>
5000045c:	e59d3004 	ldr	r3, [sp, #4]
50000460:	e2433001 	sub	r3, r3, #1	; 0x1
50000464:	e58d3004 	str	r3, [sp, #4]
50000468:	e59d2004 	ldr	r2, [sp, #4]
5000046c:	e3520000 	cmp	r2, #0	; 0x0
50000470:	aaffffef 	bge	50000434 <dl+0x28>
50000474:	e28dd008 	add	sp, sp, #8	; 0x8
50000478:	e12fff1e 	bx	lr

5000047c <test1>:
5000047c:	e3a0247f 	mov	r2, #2130706432	; 0x7f000000
50000480:	e2822902 	add	r2, r2, #32768	; 0x8000
50000484:	e5923820 	ldr	r3, [r2, #2080]
50000488:	e3a01102 	mov	r1, #-2147483648	; 0x80000000
5000048c:	e00337c1 	and	r3, r3, r1, asr #15
50000490:	e5823820 	str	r3, [r2, #2080]
50000494:	e3a03c11 	mov	r3, #4352	; 0x1100
50000498:	e5921820 	ldr	r1, [r2, #2080]
5000049c:	e2833011 	add	r3, r3, #17	; 0x11
500004a0:	e1811003 	orr	r1, r1, r3
500004a4:	e3a0300e 	mov	r3, #14	; 0xe
500004a8:	e5821820 	str	r1, [r2, #2080]
500004ac:	e5823824 	str	r3, [r2, #2084]
500004b0:	e12fff1e 	bx	lr

500004b4 <test2>:
500004b4:	e3a0247f 	mov	r2, #2130706432	; 0x7f000000
500004b8:	e2822902 	add	r2, r2, #32768	; 0x8000
500004bc:	e5923820 	ldr	r3, [r2, #2080]
500004c0:	e3a01102 	mov	r1, #-2147483648	; 0x80000000
500004c4:	e00337c1 	and	r3, r3, r1, asr #15
500004c8:	e5823820 	str	r3, [r2, #2080]
500004cc:	e3a03c11 	mov	r3, #4352	; 0x1100
500004d0:	e5921820 	ldr	r1, [r2, #2080]
500004d4:	e2833011 	add	r3, r3, #17	; 0x11
500004d8:	e1811003 	orr	r1, r1, r3
500004dc:	e3a0300c 	mov	r3, #12	; 0xc
500004e0:	e5821820 	str	r1, [r2, #2080]
500004e4:	e5823824 	str	r3, [r2, #2084]
500004e8:	e12fff1e 	bx	lr
Disassembly of section .ARM.attributes:

00000000 <.ARM.attributes>:
   0:	00002541 	andeq	r2, r0, r1, asr #10
   4:	61656100 	cmnvs	r5, r0, lsl #2
   8:	01006962 	tsteq	r0, r2, ror #18
   c:	0000001b 	andeq	r0, r0, fp, lsl r0
  10:	00543405 	subseq	r3, r4, r5, lsl #8
  14:	01080206 	tsteq	r8, r6, lsl #4
  18:	01140412 	tsteq	r4, r2, lsl r4
  1c:	03170115 	tsteq	r7, #1073741829	; 0x40000005
  20:	01190118 	tsteq	r9, r8, lsl r1
  24:	Address 0x00000024 is out of bounds.

Disassembly of section .comment:

00000000 <.comment>:
   0:	43434700 	movtmi	r4, #14080	; 0x3700
   4:	5328203a 	teqpl	r8, #58	; 0x3a
   8:	6372756f 	cmnvs	r2, #465567744	; 0x1bc00000
   c:	20797265 	rsbscs	r7, r9, r5, ror #4
  10:	202b2b47 	eorcs	r2, fp, r7, asr #22
  14:	6574694c 	ldrbvs	r6, [r4, #-2380]!
  18:	30303220 	eorscc	r3, r0, r0, lsr #4
  1c:	2d337138 	ldfcss	f7, [r3, #-224]!
  20:	20293237 	eorcs	r3, r9, r7, lsr r2
  24:	2e332e34 	mrccs	14, 1, r2, cr3, cr4, {1}
  28:	47000032 	smladxmi	r0, r2, r0, r0
  2c:	203a4343 	eorscs	r4, sl, r3, asr #6
  30:	756f5328 	strbvc	r5, [pc, #-808]!	; fffffd10 <bss_end+0xaffff824>
  34:	72656372 	rsbvc	r6, r5, #-939524095	; 0xc8000001
  38:	2b472079 	blcs	11c8224 <_start-0x4ee37ddc>
  3c:	694c202b 	stmdbvs	ip, {r0, r1, r3, r5, sp}^
  40:	32206574 	eorcc	r6, r0, #486539264	; 0x1d000000
  44:	71383030 	teqvc	r8, r0, lsr r0
  48:	32372d33 	eorscc	r2, r7, #3264	; 0xcc0
  4c:	2e342029 	cdpcs	0, 3, cr2, cr4, cr9, {1}
  50:	00322e33 	eorseq	r2, r2, r3, lsr lr
  54:	43434700 	movtmi	r4, #14080	; 0x3700
  58:	5328203a 	teqpl	r8, #58	; 0x3a
  5c:	6372756f 	cmnvs	r2, #465567744	; 0x1bc00000
  60:	20797265 	rsbscs	r7, r9, r5, ror #4
  64:	202b2b47 	eorcs	r2, fp, r7, asr #22
  68:	6574694c 	ldrbvs	r6, [r4, #-2380]!
  6c:	30303220 	eorscc	r3, r0, r0, lsr #4
  70:	2d337138 	ldfcss	f7, [r3, #-224]!
  74:	20293237 	eorcs	r3, r9, r7, lsr r2
  78:	2e332e34 	mrccs	14, 1, r2, cr3, cr4, {1}
  7c:	47000032 	smladxmi	r0, r2, r0, r0
  80:	203a4343 	eorscs	r4, sl, r3, asr #6
  84:	756f5328 	strbvc	r5, [pc, #-808]!	; fffffd64 <bss_end+0xaffff878>
  88:	72656372 	rsbvc	r6, r5, #-939524095	; 0xc8000001
  8c:	2b472079 	blcs	11c8278 <_start-0x4ee37d88>
  90:	694c202b 	stmdbvs	ip, {r0, r1, r3, r5, sp}^
  94:	32206574 	eorcc	r6, r0, #486539264	; 0x1d000000
  98:	71383030 	teqvc	r8, r0, lsr r0
  9c:	32372d33 	eorscc	r2, r7, #3264	; 0xcc0
  a0:	2e342029 	cdpcs	0, 3, cr2, cr4, cr9, {1}
  a4:	00322e33 	eorseq	r2, r2, r3, lsr lr
  a8:	43434700 	movtmi	r4, #14080	; 0x3700
  ac:	5328203a 	teqpl	r8, #58	; 0x3a
  b0:	6372756f 	cmnvs	r2, #465567744	; 0x1bc00000
  b4:	20797265 	rsbscs	r7, r9, r5, ror #4
  b8:	202b2b47 	eorcs	r2, fp, r7, asr #22
  bc:	6574694c 	ldrbvs	r6, [r4, #-2380]!
  c0:	30303220 	eorscc	r3, r0, r0, lsr #4
  c4:	2d337138 	ldfcss	f7, [r3, #-224]!
  c8:	20293237 	eorcs	r3, r9, r7, lsr r2
  cc:	2e332e34 	mrccs	14, 1, r2, cr3, cr4, {1}
  d0:	Address 0x000000d0 is out of bounds.

